; Function Attrs: nounwind sspstrong uwtable
define internal fastcc i64 @random_ulong_limited(i64 noundef %0, ptr noundef %1, i64 noundef range(i64 -4611686018427387904, -9223372036854775808) %2) unnamed_addr #0 {
  %4 = alloca %union.anon.20, align 8
  %.not = icmp eq i64 %2, 0
  br i1 %.not, label %limited_rand.exit, label %5

5:                                                ; preds = %3
  %.not33 = icmp eq ptr %1, null
  br i1 %.not33, label %6, label %37

6:                                                ; preds = %5
  %7 = tail call range(i64 0, 65) i64 @llvm.ctlz.i64(i64 range(i64 -4611686018427387904, -9223372036854775808) %2, i1 true)
  %narrow = sub nuw nsw i64 64, %7
  %8 = icmp ult i64 %2, 4294967296
  %9 = select i1 %8, i32 4, i32 8
  %10 = shl nsw i64 -1, %narrow
  %11 = xor i64 %10, -1
  %12 = zext nneg i32 %9 to i64
  %13 = shl nuw nsw i32 %9, 3
  %14 = zext nneg i32 %13 to i64
  %15 = shl nsw i64 -1, %14
  %16 = xor i64 %15, -1
  %17 = select i1 %8, i64 %16, i64 -1
  br i1 %8, label %.split.us, label %.split

.split.us:                                        ; preds = %6, %23
  %.027.us = phi i64 [ %24, %23 ], [ 0, %6 ]
  %.0.us = phi i64 [ %25, %23 ], [ 0, %6 ]
  %18 = or i64 %.0.us, %10
  %.not34.us = icmp eq i64 %18, -1
  br i1 %.not34.us, label %23, label %19

19:                                               ; preds = %.split.us
  call void @llvm.lifetime.start.p0(i64 8, ptr nonnull %4) #23
  %20 = call fastcc i64 @obj_random_bytes(i64 noundef %0, ptr noundef nonnull %4, i64 noundef %12)
  %21 = load i32, ptr %4, align 8
  %22 = zext i32 %21 to i64
  call void @llvm.lifetime.end.p0(i64 8, ptr nonnull %4) #23
  br label %23

23:                                               ; preds = %19, %.split.us
  %.128.us = phi i64 [ %22, %19 ], [ %.027.us, %.split.us ]
  %.1.us = phi i64 [ %17, %19 ], [ %.0.us, %.split.us ]
  %24 = lshr i64 %.128.us, %narrow
  %25 = lshr i64 %.1.us, %narrow
  %26 = and i64 %.128.us, %11
  %27 = icmp ult i64 %2, %26
  br i1 %27, label %.split.us, label %limited_rand.exit, !llvm.loop !97

.split:                                           ; preds = %6, %32
  %.027 = phi i64 [ %33, %32 ], [ 0, %6 ]
  %.0 = phi i64 [ %34, %32 ], [ 0, %6 ]
  %28 = or i64 %.0, %10
  %.not34 = icmp eq i64 %28, -1
  br i1 %.not34, label %32, label %29

29:                                               ; preds = %.split
  call void @llvm.lifetime.start.p0(i64 8, ptr nonnull %4) #23
  %30 = call fastcc i64 @obj_random_bytes(i64 noundef %0, ptr noundef nonnull %4, i64 noundef %12)
  %31 = load i64, ptr %4, align 8
  call void @llvm.lifetime.end.p0(i64 8, ptr nonnull %4) #23
  br label %32

32:                                               ; preds = %29, %.split
  %.128 = phi i64 [ %31, %29 ], [ %.027, %.split ]
  %.1 = phi i64 [ %17, %29 ], [ %.0, %.split ]
  %33 = lshr i64 %.128, %narrow
  %34 = lshr i64 %.1, %narrow
  %35 = and i64 %.128, %11
  %36 = icmp ult i64 %2, %35
  br i1 %36, label %.split, label %limited_rand.exit, !llvm.loop !97

37:                                               ; preds = %5
  %38 = load ptr, ptr @default_rand_key, align 8, !tbaa !7
  %39 = tail call ptr @rb_ractor_local_storage_ptr(ptr noundef %38) #23
  %40 = icmp eq ptr %39, null
  br i1 %40, label %41, label %default_rand.exit.i

41:                                               ; preds = %37
  %42 = tail call noalias nonnull dereferenceable(2520) ptr @ruby_xcalloc(i64 noundef 1, i64 noundef 2520) #24
  %43 = load ptr, ptr @default_rand_key, align 8, !tbaa !7
  tail call void @rb_ractor_local_storage_ptr_set(ptr noundef %43, ptr noundef nonnull %42) #23
  br label %default_rand.exit.i

default_rand.exit.i:                              ; preds = %41, %37
  %.0.i.i = phi ptr [ %42, %41 ], [ %39, %37 ]
  %44 = icmp eq ptr %1, %.0.i.i
  br i1 %44, label %try_rand_if.exit, label %45

45:                                               ; preds = %default_rand.exit.i
  %46 = inttoptr i64 %0 to ptr
  %47 = getelementptr inbounds nuw i8, ptr %46, i64 16
  %48 = load ptr, ptr %47, align 8, !tbaa !31
  %49 = getelementptr inbounds nuw i8, ptr %48, i64 56
  %50 = load ptr, ptr %49, align 8, !tbaa !35
  br label %try_rand_if.exit

try_rand_if.exit:                                 ; preds = %45, %default_rand.exit.i
  %.0.i = phi ptr [ %50, %45 ], [ @random_mt_if, %default_rand.exit.i ]
  %51 = lshr i64 %2, 1
  %52 = or i64 %51, %2
  %53 = lshr i64 %52, 2
  %54 = or i64 %53, %52
  %55 = lshr i64 %54, 4
  %56 = or i64 %55, %54
  %57 = lshr i64 %56, 8
  %58 = or i64 %57, %56
  %59 = lshr i64 %58, 16
  %60 = or i64 %59, %58
  %61 = lshr i64 %60, 32
  %62 = or i64 %61, %60
  %63 = icmp ugt i64 %2, 4294967295
  %64 = getelementptr inbounds nuw i8, ptr %.0.i, i64 32
  br i1 %63, label %.loopexit28.i, label %.preheader29.i

.loopexit28.i:                                    ; preds = %try_rand_if.exit, %.loopexit28.i.backedge
  %indvars.iv.i = phi i64 [ %indvars.iv.i.be, %.loopexit28.i.backedge ], [ 1, %try_rand_if.exit ]
  %.02332.i = phi i64 [ %.02332.i.be, %.loopexit28.i.backedge ], [ 0, %try_rand_if.exit ]
  %65 = shl nuw nsw i64 %indvars.iv.i, 5
  %66 = shl i64 4294967295, %65
  %67 = and i64 %66, %62
  %.not27.i = icmp eq i64 %67, 0
  br i1 %.not27.i, label %76, label %68

68:                                               ; preds = %.loopexit28.i
  %69 = load ptr, ptr %64, align 8, !tbaa !39
  %70 = tail call i32 %69(ptr noundef nonnull %1) #23
  %71 = zext i32 %70 to i64
  %72 = shl nuw i64 %71, %65
  %73 = or i64 %72, %.02332.i
  %74 = and i64 %73, %62
  %75 = icmp ult i64 %2, %74
  br i1 %75, label %.loopexit28.i.backedge, label %76

76:                                               ; preds = %68, %.loopexit28.i
  %.1.i = phi i64 [ %74, %68 ], [ %.02332.i, %.loopexit28.i ]
  %indvars.iv.next.i = add nsw i64 %indvars.iv.i, -1
  %.not36.i = icmp eq i64 %indvars.iv.i, 0
  br i1 %.not36.i, label %limited_rand.exit, label %.loopexit28.i.backedge

.loopexit28.i.backedge:                           ; preds = %76, %68
  %indvars.iv.i.be = phi i64 [ %indvars.iv.next.i, %76 ], [ 1, %68 ]
  %.02332.i.be = phi i64 [ %.1.i, %76 ], [ 0, %68 ]
  br label %.loopexit28.i, !llvm.loop !29

.preheader29.i:                                   ; preds = %try_rand_if.exit, %.preheader29.i
  %77 = load ptr, ptr %64, align 8, !tbaa !39
  %78 = tail call i32 %77(ptr noundef nonnull %1) #23
  %79 = zext i32 %78 to i64
  %80 = and i64 %62, %79
  %81 = icmp samesign ult i64 %2, %80
  br i1 %81, label %.preheader29.i, label %limited_rand.exit, !llvm.loop !30

limited_rand.exit:                                ; preds = %.preheader29.i, %76, %32, %23, %3
  %.029 = phi i64 [ 0, %3 ], [ %26, %23 ], [ %35, %32 ], [ %.1.i, %76 ], [ %80, %.preheader29.i ]
  ret i64 %.029
}